target datalayout = "e-m:e-p270:32:32-p271:32:32-p272:64:64-i64:64-i128:128-f80:128-n8:16:32:64-S128"
target triple = "x86_64-pc-linux-gnu"

%struct.Scheduler = type { ptr, ptr, i32, ptr, i32, i32, %union.pthread_mutex_t, i32, i32, %union.pthread_mutex_t, %union.pthread_cond_t, ptr, i32, ptr, i32, ptr, i32, ptr, i32, ptr, i32, i32, i32, %union.pthread_mutex_t, i64 }
%union.pthread_cond_t = type { %struct.__pthread_cond_s }
%struct.__pthread_cond_s = type { %union.__atomic_wide_counter, %union.__atomic_wide_counter, [2 x i32], [2 x i32], i32, i32, [2 x i32] }
%union.__atomic_wide_counter = type { i64 }
%union.pthread_mutex_t = type { %struct.__pthread_mutex_s }
%struct.__pthread_mutex_s = type { i32, i32, i32, i32, i32, i16, i16, %struct.__pthread_internal_list }
%struct.__pthread_internal_list = type { ptr, ptr }
%struct.SchTask = type { ptr, %struct.SchedulerNode, ptr, ptr, i64, i32 }
%struct.SchedulerNode = type { i32, i32, i32 }
%struct.SchEnc = type { ptr, %struct.SchedulerNode, ptr, ptr, i32, [2 x i32], ptr, i32, %struct.SchTask, ptr, i32, ptr }

@.str = private unnamed_addr constant [30 x i8] c"Assertion %s failed at %s:%d\0A\00", align 1
@.str.2 = private unnamed_addr constant [23 x i8] c"fftools/ffmpeg_sched.c\00", align 1
@.str.6 = private unnamed_addr constant [22 x i8] c"enc_idx < sch->nb_enc\00", align 1
@.str.26 = private unnamed_addr constant [11 x i8] c"dummy <= 0\00", align 1

; Function Attrs: nounwind uwtable
define i32 @sch_enc_receive(ptr noundef %0, i32 noundef %1, ptr noundef %2) #0 {
  %4 = alloca ptr, align 8
  %5 = alloca i32, align 4
  %6 = alloca ptr, align 8
  %7 = alloca ptr, align 8
  %8 = alloca i32, align 4
  %9 = alloca i32, align 4
  store ptr %0, ptr %4, align 8, !tbaa !10
  store i32 %1, ptr %5, align 4, !tbaa !12
  store ptr %2, ptr %6, align 8, !tbaa !232
  call void @llvm.lifetime.start.p0(i64 8, ptr %7) #9
  call void @llvm.lifetime.start.p0(i64 4, ptr %8) #9
  call void @llvm.lifetime.start.p0(i64 4, ptr %9) #9
  br label %10

10:                                               ; preds = %3
  %11 = load i32, ptr %5, align 4, !tbaa !12
  %12 = load ptr, ptr %4, align 8, !tbaa !10
  %13 = getelementptr inbounds nuw %struct.Scheduler, ptr %12, i32 0, i32 14
  %14 = load i32, ptr %13, align 8, !tbaa !68
  %15 = icmp ult i32 %11, %14
  br i1 %15, label %17, label %16

16:                                               ; preds = %10
  call void (ptr, i32, ptr, ...) @av_log(ptr noundef null, i32 noundef 0, ptr noundef @.str, ptr noundef @.str.6, ptr noundef @.str.2, i32 noundef 2307)
  call void @abort() #10
  unreachable

17:                                               ; preds = %10
  br label %18

18:                                               ; preds = %17
  br label %19

19:                                               ; preds = %18
  %20 = load ptr, ptr %4, align 8, !tbaa !10
  %21 = getelementptr inbounds nuw %struct.Scheduler, ptr %20, i32 0, i32 13
  %22 = load ptr, ptr %21, align 8, !tbaa !69
  %23 = load i32, ptr %5, align 4, !tbaa !12
  %24 = zext i32 %23 to i64
  %25 = getelementptr inbounds nuw %struct.SchEnc, ptr %22, i64 %24
  store ptr %25, ptr %7, align 8, !tbaa !70
  %26 = load ptr, ptr %7, align 8, !tbaa !70
  %27 = getelementptr inbounds nuw %struct.SchEnc, ptr %26, i32 0, i32 9
  %28 = load ptr, ptr %27, align 8, !tbaa !235
  %29 = load ptr, ptr %6, align 8, !tbaa !232
  %30 = call i32 @tq_receive(ptr noundef %28, ptr noundef %9, ptr noundef %29)
  store i32 %30, ptr %8, align 4, !tbaa !12
  br label %31

31:                                               ; preds = %19
  %32 = load i32, ptr %9, align 4, !tbaa !12
  %33 = icmp sle i32 %32, 0
  br i1 %33, label %35, label %34

34:                                               ; preds = %31
  call void (ptr, i32, ptr, ...) @av_log(ptr noundef null, i32 noundef 0, ptr noundef @.str, ptr noundef @.str.26, ptr noundef @.str.2, i32 noundef 2311)
  call void @abort() #10
  unreachable

35:                                               ; preds = %31
  br label %36

36:                                               ; preds = %35
  br label %37

37:                                               ; preds = %36
  %38 = load i32, ptr %8, align 4, !tbaa !12
  call void @llvm.lifetime.end.p0(i64 4, ptr %9) #9
  call void @llvm.lifetime.end.p0(i64 4, ptr %8) #9
  call void @llvm.lifetime.end.p0(i64 8, ptr %7) #9
  ret i32 %38
}