; Function Attrs: nounwind uwtable
define i32 @sch_enc_receive(ptr noundef readonly captures(none) %0, i32 noundef %1, ptr noundef %2) local_unnamed_addr #0 {
  %4 = alloca i32, align 4
  call void @llvm.lifetime.start.p0(i64 4, ptr nonnull %4) #9
  %5 = getelementptr inbounds nuw i8, ptr %0, i64 200
  %6 = load i32, ptr %5, align 8, !tbaa !49
  %7 = icmp ult i32 %1, %6
  br i1 %7, label %9, label %8

8:                                                ; preds = %3
  tail call void (ptr, i32, ptr, ...) @av_log(ptr noundef null, i32 noundef 0, ptr noundef nonnull @.str, ptr noundef nonnull @.str.6, ptr noundef nonnull @.str.2, i32 noundef 2307) #9
  tail call void @abort() #10
  unreachable

9:                                                ; preds = %3
  %10 = getelementptr inbounds nuw i8, ptr %0, i64 192
  %11 = load ptr, ptr %10, align 8, !tbaa !60
  %12 = zext i32 %1 to i64
  %13 = getelementptr inbounds nuw %struct.SchEnc, ptr %11, i64 %12, i32 9
  %14 = load ptr, ptr %13, align 8, !tbaa !217
  %15 = call i32 @tq_receive(ptr noundef %14, ptr noundef nonnull %4, ptr noundef %2) #9
  %16 = load i32, ptr %4, align 4, !tbaa !68
  %17 = icmp slt i32 %16, 1
  br i1 %17, label %19, label %18

18:                                               ; preds = %9
  call void (ptr, i32, ptr, ...) @av_log(ptr noundef null, i32 noundef 0, ptr noundef nonnull @.str, ptr noundef nonnull @.str.26, ptr noundef nonnull @.str.2, i32 noundef 2311) #9
  call void @abort() #10
  unreachable

19:                                               ; preds = %9
  call void @llvm.lifetime.end.p0(i64 4, ptr nonnull %4) #9
  ret i32 %15
}